target datalayout = "e-m:e-p270:32:32-p271:32:32-p272:64:64-i64:64-i128:128-f80:128-n8:16:32:64-S128"
target triple = "x86_64-pc-linux-gnu"

%struct._packet_info = type { ptr, ptr, i32, i32, %struct.nstime_t, %struct.nstime_t, %struct.nstime_t, i8, ptr, ptr, ptr, ptr, %struct._address, %struct._address, %struct._address, %struct._address, %struct._address, %struct._address, i32, ptr, i8, [3 x i8], %struct.anon, i32, i32, i32, i32, ptr, i8, ptr, ptr, i16, i16, i32, i32, i16, i32, i32, ptr, ptr, ptr, i8, i8, i16, i16, i16, i32, i16, i16, ptr, ptr, ptr, ptr, ptr, i32, i32 }
%struct.nstime_t = type { i64, i32 }
%struct._address = type { i32, i32, ptr, ptr }
%struct.anon = type { i8, [3 x i8] }
%struct._proto_node = type { ptr, ptr, ptr, ptr, ptr, ptr, ptr }
%struct.field_info = type { ptr, i32, i32, i32, i32, i32, i32, ptr, ptr, ptr, i32, i32 }

@hf_dmx_test_data = internal global i32 0, align 4
@hf_dmx_test_data_good = internal global i32 0, align 4
@hf_dmx_test_data_bad = internal global i32 0, align 4
@ett_dmx_test = internal global i32 0, align 4
@.str.80 = private unnamed_addr constant [15 x i8] c"DMX Test Frame\00", align 1
@proto_dmx_test = internal global i32 0, align 4
@.str.104 = private unnamed_addr constant [15 x i8] c", Data correct\00", align 1
@.str.105 = private unnamed_addr constant [11 x i8] c" [correct]\00", align 1
@.str.106 = private unnamed_addr constant [17 x i8] c", Data incorrect\00", align 1
@.str.107 = private unnamed_addr constant [13 x i8] c" [incorrect]\00", align 1

; Function Attrs: inlinehint nounwind null_pointer_is_valid sspstrong uwtable
define internal void @proto_item_set_generated(ptr noundef %0) #3 {
  %2 = alloca ptr, align 8
  store ptr %0, ptr %2, align 8
  %3 = load ptr, ptr %2, align 8
  %4 = icmp ne ptr %3, null
  br i1 %4, label %5, label %24

5:                                                ; preds = %1
  br label %6

6:                                                ; preds = %5
  %7 = load ptr, ptr %2, align 8
  %8 = getelementptr inbounds nuw %struct._proto_node, ptr %7, i32 0, i32 5
  %9 = load ptr, ptr %8, align 8
  %10 = icmp ne ptr %9, null
  br i1 %10, label %11, label %22

11:                                               ; preds = %6
  %12 = load ptr, ptr %2, align 8
  %13 = getelementptr inbounds nuw %struct._proto_node, ptr %12, i32 0, i32 5
  %14 = load ptr, ptr %13, align 8
  %15 = getelementptr inbounds nuw %struct.field_info, ptr %14, i32 0, i32 6
  %16 = load i32, ptr %15, align 4
  %17 = or i32 %16, 2
  %18 = load ptr, ptr %2, align 8
  %19 = getelementptr inbounds nuw %struct._proto_node, ptr %18, i32 0, i32 5
  %20 = load ptr, ptr %19, align 8
  %21 = getelementptr inbounds nuw %struct.field_info, ptr %20, i32 0, i32 6
  store i32 %17, ptr %21, align 4
  br label %22

22:                                               ; preds = %11, %6
  br label %23

23:                                               ; preds = %22
  br label %24

24:                                               ; preds = %23, %1
  ret void
}

; Function Attrs: null_pointer_is_valid sspstrong uwtable
define internal i32 @dissect_dmx_test(ptr noundef %0, ptr noundef %1, ptr noundef %2, ptr noundef %3) #0 {
  %5 = alloca ptr, align 8
  %6 = alloca ptr, align 8
  %7 = alloca ptr, align 8
  %8 = alloca ptr, align 8
  %9 = alloca i32, align 4
  %10 = alloca i32, align 4
  %11 = alloca i32, align 4
  %12 = alloca i32, align 4
  %13 = alloca ptr, align 8
  %14 = alloca ptr, align 8
  %15 = alloca ptr, align 8
  %16 = alloca ptr, align 8
  store ptr %0, ptr %5, align 8
  store ptr %1, ptr %6, align 8
  store ptr %2, ptr %7, align 8
  store ptr %3, ptr %8, align 8
  %17 = load ptr, ptr %6, align 8
  %18 = getelementptr inbounds nuw %struct._packet_info, ptr %17, i32 0, i32 1
  %19 = load ptr, ptr %18, align 8
  call void @col_set_str(ptr noundef %19, i32 noundef 35, ptr noundef @.str.80)
  %20 = load ptr, ptr %6, align 8
  %21 = getelementptr inbounds nuw %struct._packet_info, ptr %20, i32 0, i32 1
  %22 = load ptr, ptr %21, align 8
  call void @col_clear(ptr noundef %22, i32 noundef 25)
  %23 = load ptr, ptr %7, align 8
  %24 = icmp ne ptr %23, null
  br i1 %24, label %25, label %109

25:                                               ; preds = %4
  call void @llvm.lifetime.start.p0(i64 4, ptr %9) #4
  store i32 0, ptr %9, align 4
  call void @llvm.lifetime.start.p0(i64 4, ptr %10) #4
  call void @llvm.lifetime.start.p0(i64 4, ptr %11) #4
  call void @llvm.lifetime.start.p0(i64 4, ptr %12) #4
  call void @llvm.lifetime.start.p0(i64 8, ptr %13) #4
  call void @llvm.lifetime.start.p0(i64 8, ptr %14) #4
  call void @llvm.lifetime.start.p0(i64 8, ptr %15) #4
  %26 = load ptr, ptr %7, align 8
  %27 = load i32, ptr @proto_dmx_test, align 4
  %28 = load ptr, ptr %5, align 8
  %29 = load i32, ptr %9, align 4
  %30 = call ptr @proto_tree_add_item(ptr noundef %26, i32 noundef %27, ptr noundef %28, i32 noundef %29, i32 noundef -1, i32 noundef 0)
  store ptr %30, ptr %15, align 8
  call void @llvm.lifetime.start.p0(i64 8, ptr %16) #4
  %31 = load ptr, ptr %15, align 8
  %32 = load i32, ptr @ett_dmx_test, align 4
  %33 = call ptr @proto_item_add_subtree(ptr noundef %31, i32 noundef %32)
  store ptr %33, ptr %16, align 8
  %34 = load ptr, ptr %5, align 8
  %35 = load i32, ptr %9, align 4
  %36 = call i32 @tvb_reported_length_remaining(ptr noundef %34, i32 noundef %35)
  store i32 %36, ptr %10, align 4
  %37 = load ptr, ptr %16, align 8
  %38 = load i32, ptr @hf_dmx_test_data, align 4
  %39 = load ptr, ptr %5, align 8
  %40 = load i32, ptr %9, align 4
  %41 = load i32, ptr %10, align 4
  %42 = call ptr @proto_tree_add_item(ptr noundef %37, i32 noundef %38, ptr noundef %39, i32 noundef %40, i32 noundef %41, i32 noundef 0)
  store ptr %42, ptr %14, align 8
  %43 = load i32, ptr %10, align 4
  %44 = load i32, ptr %9, align 4
  %45 = add i32 %44, %43
  store i32 %45, ptr %9, align 4
  %46 = load i32, ptr %10, align 4
  %47 = icmp eq i32 %46, 512
  br i1 %47, label %48, label %64

48:                                               ; preds = %25
  store i32 1, ptr %12, align 4
  store i32 0, ptr %11, align 4
  br label %49

49:                                               ; preds = %60, %48
  %50 = load i32, ptr %11, align 4
  %51 = icmp ult i32 %50, 512
  br i1 %51, label %52, label %63

52:                                               ; preds = %49
  %53 = load ptr, ptr %5, align 8
  %54 = load i32, ptr %11, align 4
  %55 = call zeroext i8 @tvb_get_uint8(ptr noundef %53, i32 noundef %54)
  %56 = zext i8 %55 to i32
  %57 = icmp ne i32 %56, 85
  br i1 %57, label %58, label %59

58:                                               ; preds = %52
  store i32 0, ptr %12, align 4
  br label %63

59:                                               ; preds = %52
  br label %60

60:                                               ; preds = %59
  %61 = load i32, ptr %11, align 4
  %62 = add i32 %61, 1
  store i32 %62, ptr %11, align 4
  br label %49, !llvm.loop !9

63:                                               ; preds = %58, %49
  br label %65

64:                                               ; preds = %25
  store i32 0, ptr %12, align 4
  br label %65

65:                                               ; preds = %64, %63
  %66 = load i32, ptr %12, align 4
  %67 = icmp ne i32 %66, 0
  br i1 %67, label %68, label %88

68:                                               ; preds = %65
  %69 = load ptr, ptr %15, align 8
  call void (ptr, ptr, ...) @proto_item_append_text(ptr noundef %69, ptr noundef @.str.104)
  %70 = load ptr, ptr %14, align 8
  call void (ptr, ptr, ...) @proto_item_append_text(ptr noundef %70, ptr noundef @.str.105)
  %71 = load ptr, ptr %14, align 8
  %72 = load i32, ptr @ett_dmx_test, align 4
  %73 = call ptr @proto_item_add_subtree(ptr noundef %71, i32 noundef %72)
  store ptr %73, ptr %13, align 8
  %74 = load ptr, ptr %13, align 8
  %75 = load i32, ptr @hf_dmx_test_data_good, align 4
  %76 = load ptr, ptr %5, align 8
  %77 = load i32, ptr %9, align 4
  %78 = load i32, ptr %10, align 4
  %79 = call ptr @proto_tree_add_boolean(ptr noundef %74, i32 noundef %75, ptr noundef %76, i32 noundef %77, i32 noundef %78, i64 noundef 1)
  store ptr %79, ptr %14, align 8
  %80 = load ptr, ptr %14, align 8
  call void @proto_item_set_generated(ptr noundef %80)
  %81 = load ptr, ptr %13, align 8
  %82 = load i32, ptr @hf_dmx_test_data_bad, align 4
  %83 = load ptr, ptr %5, align 8
  %84 = load i32, ptr %9, align 4
  %85 = load i32, ptr %10, align 4
  %86 = call ptr @proto_tree_add_boolean(ptr noundef %81, i32 noundef %82, ptr noundef %83, i32 noundef %84, i32 noundef %85, i64 noundef 0)
  store ptr %86, ptr %14, align 8
  %87 = load ptr, ptr %14, align 8
  call void @proto_item_set_generated(ptr noundef %87)
  br label %108

88:                                               ; preds = %65
  %89 = load ptr, ptr %15, align 8
  call void (ptr, ptr, ...) @proto_item_append_text(ptr noundef %89, ptr noundef @.str.106)
  %90 = load ptr, ptr %14, align 8
  call void (ptr, ptr, ...) @proto_item_append_text(ptr noundef %90, ptr noundef @.str.107)
  %91 = load ptr, ptr %14, align 8
  %92 = load i32, ptr @ett_dmx_test, align 4
  %93 = call ptr @proto_item_add_subtree(ptr noundef %91, i32 noundef %92)
  store ptr %93, ptr %13, align 8
  %94 = load ptr, ptr %13, align 8
  %95 = load i32, ptr @hf_dmx_test_data_good, align 4
  %96 = load ptr, ptr %5, align 8
  %97 = load i32, ptr %9, align 4
  %98 = load i32, ptr %10, align 4
  %99 = call ptr @proto_tree_add_boolean(ptr noundef %94, i32 noundef %95, ptr noundef %96, i32 noundef %97, i32 noundef %98, i64 noundef 0)
  store ptr %99, ptr %14, align 8
  %100 = load ptr, ptr %14, align 8
  call void @proto_item_set_generated(ptr noundef %100)
  %101 = load ptr, ptr %13, align 8
  %102 = load i32, ptr @hf_dmx_test_data_bad, align 4
  %103 = load ptr, ptr %5, align 8
  %104 = load i32, ptr %9, align 4
  %105 = load i32, ptr %10, align 4
  %106 = call ptr @proto_tree_add_boolean(ptr noundef %101, i32 noundef %102, ptr noundef %103, i32 noundef %104, i32 noundef %105, i64 noundef 1)
  store ptr %106, ptr %14, align 8
  %107 = load ptr, ptr %14, align 8
  call void @proto_item_set_generated(ptr noundef %107)
  br label %108

108:                                              ; preds = %88, %68
  call void @llvm.lifetime.end.p0(i64 8, ptr %16) #4
  call void @llvm.lifetime.end.p0(i64 8, ptr %15) #4
  call void @llvm.lifetime.end.p0(i64 8, ptr %14) #4
  call void @llvm.lifetime.end.p0(i64 8, ptr %13) #4
  call void @llvm.lifetime.end.p0(i64 4, ptr %12) #4
  call void @llvm.lifetime.end.p0(i64 4, ptr %11) #4
  call void @llvm.lifetime.end.p0(i64 4, ptr %10) #4
  call void @llvm.lifetime.end.p0(i64 4, ptr %9) #4
  br label %109

109:                                              ; preds = %108, %4
  %110 = load ptr, ptr %5, align 8
  %111 = call i32 @tvb_captured_length(ptr noundef %110)
  ret i32 %111
}